; Function Attrs: mustprogress nofree norecurse nosync nounwind willreturn memory(read, inaccessiblemem: none) uwtable
define hidden noundef zeroext i1 @_ZN4cvc58internal6theory11quantifiers19QuantifiersRewriter13doMiniscopeFvERKNS0_7OptionsE(ptr nocapture noundef nonnull readonly align 8 dereferenceable(392) %opts) local_unnamed_addr #7 align 2 {
entry:
  %quantifiers = getelementptr inbounds i8, ptr %opts, i64 328
  %0 = load ptr, ptr %quantifiers, align 8
  %miniscopeQuant = getelementptr inbounds i8, ptr %0, i64 292
  %1 = load i32, ptr %miniscopeQuant, align 4
  %2 = and i32 %1, -2
  %or.cond = icmp eq i32 %2, 2
  %cmp2 = icmp eq i32 %1, 4
  %spec.select = or i1 %cmp2, %or.cond
  ret i1 %spec.select
}